target datalayout = "e-m:e-p270:32:32-p271:32:32-p272:64:64-i64:64-i128:128-f80:128-n8:16:32:64-S128"
target triple = "x86_64-pc-linux-gnu"

%struct.lua_State = type { i8, i8, i8, i8, i8, i8, i8, ptr, ptr, ptr, ptr, ptr, ptr, ptr, ptr, i32, i32, i16, i16, i32, ptr, ptr, ptr, ptr, ptr }
%struct.UpVal = type { i8, i8, i8, i8, ptr, %union.anon }
%union.anon = type { %struct.anon }
%struct.anon = type { ptr, ptr, ptr }
%struct.lua_TValue = type { %union.Value, [1 x i32], i32 }
%union.Value = type { ptr }
%struct.GCheader = type { i8, i8, i8 }
%struct.Table = type { i8, i8, i8, i8, i8, i8, i8, i8, i32, %union.anon.4, ptr, ptr, ptr, ptr }
%union.anon.4 = type { i32 }
%struct.TString = type { i8, i8, i8, i16, ptr, i32, i32, [1 x i8] }

; Function Attrs: mustprogress uwtable
define internal void @_ZL13traversestackP12global_StateP9lua_State(ptr noundef %0, ptr noundef %1) #0 {
  %3 = alloca ptr, align 8
  %4 = alloca ptr, align 8
  %5 = alloca ptr, align 8
  %6 = alloca ptr, align 8
  store ptr %0, ptr %3, align 8
  store ptr %1, ptr %4, align 8
  %7 = load ptr, ptr %4, align 8
  %8 = getelementptr inbounds %struct.lua_State, ptr %7, i32 0, i32 20
  %9 = load ptr, ptr %8, align 8
  %10 = getelementptr inbounds %struct.Table, ptr %9, i64 0
  %11 = getelementptr inbounds %struct.GCheader, ptr %10, i32 0, i32 1
  %12 = load i8, ptr %11, align 1
  %13 = zext i8 %12 to i32
  %14 = and i32 %13, 3
  %15 = icmp ne i32 %14, 0
  br i1 %15, label %16, label %22

16:                                               ; preds = %2
  %17 = load ptr, ptr %3, align 8
  %18 = load ptr, ptr %4, align 8
  %19 = getelementptr inbounds %struct.lua_State, ptr %18, i32 0, i32 20
  %20 = load ptr, ptr %19, align 8
  %21 = getelementptr inbounds %struct.Table, ptr %20, i64 0
  call void @_ZL16reallymarkobjectP12global_StateP8GCObject(ptr noundef %17, ptr noundef %21)
  br label %22

22:                                               ; preds = %16, %2
  %23 = load ptr, ptr %4, align 8
  %24 = getelementptr inbounds %struct.lua_State, ptr %23, i32 0, i32 23
  %25 = load ptr, ptr %24, align 8
  %26 = icmp ne ptr %25, null
  br i1 %26, label %27, label %36

27:                                               ; preds = %22
  %28 = load ptr, ptr %4, align 8
  %29 = getelementptr inbounds %struct.lua_State, ptr %28, i32 0, i32 23
  %30 = load ptr, ptr %29, align 8
  %31 = getelementptr inbounds %struct.TString, ptr %30, i32 0, i32 1
  %32 = load i8, ptr %31, align 1
  %33 = zext i8 %32 to i32
  %34 = and i32 %33, 252
  %35 = trunc i32 %34 to i8
  store i8 %35, ptr %31, align 1
  br label %36

36:                                               ; preds = %27, %22
  %37 = load ptr, ptr %4, align 8
  %38 = getelementptr inbounds %struct.lua_State, ptr %37, i32 0, i32 12
  %39 = load ptr, ptr %38, align 8
  store ptr %39, ptr %5, align 8
  br label %40

40:                                               ; preds = %66, %36
  %41 = load ptr, ptr %5, align 8
  %42 = load ptr, ptr %4, align 8
  %43 = getelementptr inbounds %struct.lua_State, ptr %42, i32 0, i32 7
  %44 = load ptr, ptr %43, align 8
  %45 = icmp ult ptr %41, %44
  br i1 %45, label %46, label %69

46:                                               ; preds = %40
  %47 = load ptr, ptr %5, align 8
  %48 = getelementptr inbounds %struct.lua_TValue, ptr %47, i32 0, i32 2
  %49 = load i32, ptr %48, align 4
  %50 = icmp sge i32 %49, 5
  br i1 %50, label %51, label %65

51:                                               ; preds = %46
  %52 = load ptr, ptr %5, align 8
  %53 = getelementptr inbounds %struct.lua_TValue, ptr %52, i32 0, i32 0
  %54 = load ptr, ptr %53, align 8
  %55 = getelementptr inbounds %struct.GCheader, ptr %54, i32 0, i32 1
  %56 = load i8, ptr %55, align 1
  %57 = zext i8 %56 to i32
  %58 = and i32 %57, 3
  %59 = icmp ne i32 %58, 0
  br i1 %59, label %60, label %65

60:                                               ; preds = %51
  %61 = load ptr, ptr %3, align 8
  %62 = load ptr, ptr %5, align 8
  %63 = getelementptr inbounds %struct.lua_TValue, ptr %62, i32 0, i32 0
  %64 = load ptr, ptr %63, align 8
  call void @_ZL16reallymarkobjectP12global_StateP8GCObject(ptr noundef %61, ptr noundef %64)
  br label %65

65:                                               ; preds = %60, %51, %46
  br label %66

66:                                               ; preds = %65
  %67 = load ptr, ptr %5, align 8
  %68 = getelementptr inbounds %struct.lua_TValue, ptr %67, i32 1
  store ptr %68, ptr %5, align 8
  br label %40, !llvm.loop !19

69:                                               ; preds = %40
  %70 = load ptr, ptr %4, align 8
  %71 = getelementptr inbounds %struct.lua_State, ptr %70, i32 0, i32 21
  %72 = load ptr, ptr %71, align 8
  store ptr %72, ptr %6, align 8
  br label %73

73:                                               ; preds = %91, %69
  %74 = load ptr, ptr %6, align 8
  %75 = icmp ne ptr %74, null
  br i1 %75, label %76, label %96

76:                                               ; preds = %73
  %77 = load ptr, ptr %6, align 8
  %78 = getelementptr inbounds %struct.UpVal, ptr %77, i32 0, i32 3
  store i8 1, ptr %78, align 1
  %79 = load ptr, ptr %6, align 8
  %80 = getelementptr inbounds %struct.UpVal, ptr %79, i64 0
  %81 = getelementptr inbounds %struct.GCheader, ptr %80, i32 0, i32 1
  %82 = load i8, ptr %81, align 1
  %83 = zext i8 %82 to i32
  %84 = and i32 %83, 3
  %85 = icmp ne i32 %84, 0
  br i1 %85, label %86, label %90

86:                                               ; preds = %76
  %87 = load ptr, ptr %3, align 8
  %88 = load ptr, ptr %6, align 8
  %89 = getelementptr inbounds %struct.UpVal, ptr %88, i64 0
  call void @_ZL16reallymarkobjectP12global_StateP8GCObject(ptr noundef %87, ptr noundef %89)
  br label %90

90:                                               ; preds = %86, %76
  br label %91

91:                                               ; preds = %90
  %92 = load ptr, ptr %6, align 8
  %93 = getelementptr inbounds %struct.UpVal, ptr %92, i32 0, i32 5
  %94 = getelementptr inbounds %struct.anon, ptr %93, i32 0, i32 2
  %95 = load ptr, ptr %94, align 8
  store ptr %95, ptr %6, align 8
  br label %73, !llvm.loop !20

96:                                               ; preds = %73
  ret void
}