; Function Attrs: mustprogress nofree nosync nounwind memory(readwrite, inaccessiblemem: none) uwtable
define internal fastcc void @_ZL13traversestackP12global_StateP9lua_State(ptr nocapture noundef %0, ptr nocapture noundef readonly %1) unnamed_addr #2 {
  %3 = getelementptr inbounds i8, ptr %1, i64 88
  %4 = load ptr, ptr %3, align 8
  %5 = getelementptr inbounds i8, ptr %4, i64 1
  %6 = load i8, ptr %5, align 1
  %7 = and i8 %6, 3
  %.not = icmp eq i8 %7, 0
  br i1 %.not, label %9, label %8

8:                                                ; preds = %2
  tail call fastcc void @_ZL16reallymarkobjectP12global_StateP8GCObject(ptr noundef %0, ptr noundef nonnull %4)
  br label %9

9:                                                ; preds = %8, %2
  %10 = getelementptr inbounds i8, ptr %1, i64 112
  %11 = load ptr, ptr %10, align 8
  %.not22 = icmp eq ptr %11, null
  br i1 %.not22, label %16, label %12

12:                                               ; preds = %9
  %13 = getelementptr inbounds i8, ptr %11, i64 1
  %14 = load i8, ptr %13, align 1
  %15 = and i8 %14, -4
  store i8 %15, ptr %13, align 1
  br label %16

16:                                               ; preds = %12, %9
  %17 = getelementptr inbounds i8, ptr %1, i64 48
  %18 = load ptr, ptr %17, align 8
  %19 = getelementptr inbounds i8, ptr %1, i64 8
  %20 = load ptr, ptr %19, align 8
  %21 = icmp ult ptr %18, %20
  br i1 %21, label %.lr.ph, label %._crit_edge

.lr.ph:                                           ; preds = %16, %32
  %22 = phi ptr [ %33, %32 ], [ %20, %16 ]
  %.02026 = phi ptr [ %34, %32 ], [ %18, %16 ]
  %23 = getelementptr inbounds i8, ptr %.02026, i64 12
  %24 = load i32, ptr %23, align 4
  %25 = icmp sgt i32 %24, 4
  br i1 %25, label %26, label %32

26:                                               ; preds = %.lr.ph
  %27 = load ptr, ptr %.02026, align 8
  %28 = getelementptr inbounds i8, ptr %27, i64 1
  %29 = load i8, ptr %28, align 1
  %30 = and i8 %29, 3
  %.not25 = icmp eq i8 %30, 0
  br i1 %.not25, label %32, label %31

31:                                               ; preds = %26
  tail call fastcc void @_ZL16reallymarkobjectP12global_StateP8GCObject(ptr noundef %0, ptr noundef nonnull %27)
  %.pre = load ptr, ptr %19, align 8
  br label %32

32:                                               ; preds = %.lr.ph, %26, %31
  %33 = phi ptr [ %22, %.lr.ph ], [ %22, %26 ], [ %.pre, %31 ]
  %34 = getelementptr inbounds i8, ptr %.02026, i64 16
  %35 = icmp ult ptr %34, %33
  br i1 %35, label %.lr.ph, label %._crit_edge, !llvm.loop !31

._crit_edge:                                      ; preds = %32, %16
  %36 = getelementptr inbounds i8, ptr %1, i64 96
  %.027 = load ptr, ptr %36, align 8
  %.not2328 = icmp eq ptr %.027, null
  br i1 %.not2328, label %._crit_edge32, label %.lr.ph31

.lr.ph31:                                         ; preds = %._crit_edge, %42
  %.029 = phi ptr [ %.0, %42 ], [ %.027, %._crit_edge ]
  %37 = getelementptr inbounds i8, ptr %.029, i64 3
  store i8 1, ptr %37, align 1
  %38 = getelementptr inbounds i8, ptr %.029, i64 1
  %39 = load i8, ptr %38, align 1
  %40 = and i8 %39, 3
  %.not24 = icmp eq i8 %40, 0
  br i1 %.not24, label %42, label %41

41:                                               ; preds = %.lr.ph31
  tail call fastcc void @_ZL16reallymarkobjectP12global_StateP8GCObject(ptr noundef %0, ptr noundef nonnull %.029)
  br label %42

42:                                               ; preds = %.lr.ph31, %41
  %43 = getelementptr inbounds i8, ptr %.029, i64 32
  %.0 = load ptr, ptr %43, align 8
  %.not23 = icmp eq ptr %.0, null
  br i1 %.not23, label %._crit_edge32, label %.lr.ph31, !llvm.loop !32

._crit_edge32:                                    ; preds = %42, %._crit_edge
  ret void
}